target datalayout = "e-m:e-p270:32:32-p271:32:32-p272:64:64-i64:64-i128:128-f80:128-n8:16:32:64-S128"
target triple = "x86_64-pc-linux-gnu"

%struct.x509_st = type { ptr, ptr, ptr, i32, i32, ptr, %struct.crypto_ex_data_st, i64, i64, i64, i64, i64, i64, ptr, ptr, ptr, ptr, ptr, ptr, [20 x i8], ptr }
%struct.crypto_ex_data_st = type { ptr }
%struct.AUTHORITY_KEYID_st = type { ptr, ptr, ptr }
%struct.GENERAL_NAME_st = type { i32, %union.anon }
%union.anon = type { ptr }

; Function Attrs: nounwind uwtable
define hidden i32 @X509_check_akid(ptr noundef %0, ptr noundef %1) #0 {
  %3 = alloca i32, align 4
  %4 = alloca ptr, align 8
  %5 = alloca ptr, align 8
  %6 = alloca ptr, align 8
  %7 = alloca ptr, align 8
  %8 = alloca ptr, align 8
  %9 = alloca i64, align 8
  %10 = alloca i32, align 4
  store ptr %0, ptr %4, align 8, !tbaa !6
  store ptr %1, ptr %5, align 8, !tbaa !90
  %11 = load ptr, ptr %5, align 8, !tbaa !90
  %12 = icmp ne ptr %11, null
  br i1 %12, label %14, label %13

13:                                               ; preds = %2
  store i32 0, ptr %3, align 4
  br label %93

14:                                               ; preds = %2
  %15 = load ptr, ptr %5, align 8, !tbaa !90
  %16 = getelementptr inbounds nuw %struct.AUTHORITY_KEYID_st, ptr %15, i32 0, i32 0
  %17 = load ptr, ptr %16, align 8, !tbaa !91
  %18 = icmp ne ptr %17, null
  br i1 %18, label %19, label %34

19:                                               ; preds = %14
  %20 = load ptr, ptr %4, align 8, !tbaa !6
  %21 = getelementptr inbounds nuw %struct.x509_st, ptr %20, i32 0, i32 13
  %22 = load ptr, ptr %21, align 8, !tbaa !66
  %23 = icmp ne ptr %22, null
  br i1 %23, label %24, label %34

24:                                               ; preds = %19
  %25 = load ptr, ptr %5, align 8, !tbaa !90
  %26 = getelementptr inbounds nuw %struct.AUTHORITY_KEYID_st, ptr %25, i32 0, i32 0
  %27 = load ptr, ptr %26, align 8, !tbaa !91
  %28 = load ptr, ptr %4, align 8, !tbaa !6
  %29 = getelementptr inbounds nuw %struct.x509_st, ptr %28, i32 0, i32 13
  %30 = load ptr, ptr %29, align 8, !tbaa !66
  %31 = call i32 @ASN1_OCTET_STRING_cmp(ptr noundef %27, ptr noundef %30)
  %32 = icmp ne i32 %31, 0
  br i1 %32, label %33, label %34

33:                                               ; preds = %24
  store i32 30, ptr %3, align 4
  br label %93

34:                                               ; preds = %24, %19, %14
  %35 = load ptr, ptr %5, align 8, !tbaa !90
  %36 = getelementptr inbounds nuw %struct.AUTHORITY_KEYID_st, ptr %35, i32 0, i32 2
  %37 = load ptr, ptr %36, align 8, !tbaa !93
  %38 = icmp ne ptr %37, null
  br i1 %38, label %39, label %48

39:                                               ; preds = %34
  %40 = load ptr, ptr %4, align 8, !tbaa !6
  %41 = call ptr @X509_get_serialNumber(ptr noundef %40)
  %42 = load ptr, ptr %5, align 8, !tbaa !90
  %43 = getelementptr inbounds nuw %struct.AUTHORITY_KEYID_st, ptr %42, i32 0, i32 2
  %44 = load ptr, ptr %43, align 8, !tbaa !93
  %45 = call i32 @ASN1_INTEGER_cmp(ptr noundef %41, ptr noundef %44)
  %46 = icmp ne i32 %45, 0
  br i1 %46, label %47, label %48

47:                                               ; preds = %39
  store i32 31, ptr %3, align 4
  br label %93

48:                                               ; preds = %39, %34
  %49 = load ptr, ptr %5, align 8, !tbaa !90
  %50 = getelementptr inbounds nuw %struct.AUTHORITY_KEYID_st, ptr %49, i32 0, i32 1
  %51 = load ptr, ptr %50, align 8, !tbaa !94
  %52 = icmp ne ptr %51, null
  br i1 %52, label %53, label %92

53:                                               ; preds = %48
  call void @llvm.lifetime.start.p0(i64 8, ptr %6) #7
  call void @llvm.lifetime.start.p0(i64 8, ptr %7) #7
  call void @llvm.lifetime.start.p0(i64 8, ptr %8) #7
  store ptr null, ptr %8, align 8, !tbaa !95
  call void @llvm.lifetime.start.p0(i64 8, ptr %9) #7
  %54 = load ptr, ptr %5, align 8, !tbaa !90
  %55 = getelementptr inbounds nuw %struct.AUTHORITY_KEYID_st, ptr %54, i32 0, i32 1
  %56 = load ptr, ptr %55, align 8, !tbaa !94
  store ptr %56, ptr %6, align 8, !tbaa !96
  store i64 0, ptr %9, align 8, !tbaa !62
  br label %57

57:                                               ; preds = %75, %53
  %58 = load i64, ptr %9, align 8, !tbaa !62
  %59 = load ptr, ptr %6, align 8, !tbaa !96
  %60 = call i64 @sk_num(ptr noundef %59)
  %61 = icmp ult i64 %58, %60
  br i1 %61, label %62, label %78

62:                                               ; preds = %57
  %63 = load ptr, ptr %6, align 8, !tbaa !96
  %64 = load i64, ptr %9, align 8, !tbaa !62
  %65 = call ptr @sk_value(ptr noundef %63, i64 noundef %64)
  store ptr %65, ptr %7, align 8, !tbaa !97
  %66 = load ptr, ptr %7, align 8, !tbaa !97
  %67 = getelementptr inbounds nuw %struct.GENERAL_NAME_st, ptr %66, i32 0, i32 0
  %68 = load i32, ptr %67, align 8, !tbaa !99
  %69 = icmp eq i32 %68, 4
  br i1 %69, label %70, label %74

70:                                               ; preds = %62
  %71 = load ptr, ptr %7, align 8, !tbaa !97
  %72 = getelementptr inbounds nuw %struct.GENERAL_NAME_st, ptr %71, i32 0, i32 1
  %73 = load ptr, ptr %72, align 8, !tbaa !57
  store ptr %73, ptr %8, align 8, !tbaa !95
  br label %78

74:                                               ; preds = %62
  br label %75

75:                                               ; preds = %74
  %76 = load i64, ptr %9, align 8, !tbaa !62
  %77 = add i64 %76, 1
  store i64 %77, ptr %9, align 8, !tbaa !62
  br label %57, !llvm.loop !101

78:                                               ; preds = %70, %57
  %79 = load ptr, ptr %8, align 8, !tbaa !95
  %80 = icmp ne ptr %79, null
  br i1 %80, label %81, label %88

81:                                               ; preds = %78
  %82 = load ptr, ptr %8, align 8, !tbaa !95
  %83 = load ptr, ptr %4, align 8, !tbaa !6
  %84 = call ptr @X509_get_issuer_name(ptr noundef %83)
  %85 = call i32 @X509_NAME_cmp(ptr noundef %82, ptr noundef %84)
  %86 = icmp ne i32 %85, 0
  br i1 %86, label %87, label %88

87:                                               ; preds = %81
  store i32 31, ptr %3, align 4
  store i32 1, ptr %10, align 4
  br label %89

88:                                               ; preds = %81, %78
  store i32 0, ptr %10, align 4
  br label %89

89:                                               ; preds = %88, %87
  call void @llvm.lifetime.end.p0(i64 8, ptr %9) #7
  call void @llvm.lifetime.end.p0(i64 8, ptr %8) #7
  call void @llvm.lifetime.end.p0(i64 8, ptr %7) #7
  call void @llvm.lifetime.end.p0(i64 8, ptr %6) #7
  %90 = load i32, ptr %10, align 4
  switch i32 %90, label %95 [
    i32 0, label %91
    i32 1, label %93
  ]

91:                                               ; preds = %89
  br label %92

92:                                               ; preds = %91, %48
  store i32 0, ptr %3, align 4
  br label %93

93:                                               ; preds = %92, %89, %47, %33, %13
  %94 = load i32, ptr %3, align 4
  ret i32 %94

95:                                               ; preds = %89
  unreachable
}