; Function Attrs: nounwind uwtable
define hidden range(i32 0, 32) i32 @X509_check_akid(ptr noundef %0, ptr noundef readonly captures(address_is_null) %1) local_unnamed_addr #0 {
  %.not = icmp eq ptr %1, null
  br i1 %.not, label %34, label %3

3:                                                ; preds = %2
  %4 = load ptr, ptr %1, align 8, !tbaa !86
  %.not28 = icmp eq ptr %4, null
  br i1 %.not28, label %10, label %5

5:                                                ; preds = %3
  %6 = getelementptr inbounds nuw i8, ptr %0, i64 96
  %7 = load ptr, ptr %6, align 8, !tbaa !57
  %.not29 = icmp eq ptr %7, null
  br i1 %.not29, label %10, label %8

8:                                                ; preds = %5
  %9 = tail call i32 @ASN1_OCTET_STRING_cmp(ptr noundef nonnull %4, ptr noundef nonnull %7) #10
  %.not30 = icmp eq i32 %9, 0
  br i1 %.not30, label %10, label %34

10:                                               ; preds = %8, %5, %3
  %11 = getelementptr inbounds nuw i8, ptr %1, i64 16
  %12 = load ptr, ptr %11, align 8, !tbaa !88
  %.not31 = icmp eq ptr %12, null
  br i1 %.not31, label %17, label %13

13:                                               ; preds = %10
  %14 = tail call ptr @X509_get_serialNumber(ptr noundef %0) #10
  %15 = load ptr, ptr %11, align 8, !tbaa !88
  %16 = tail call i32 @ASN1_INTEGER_cmp(ptr noundef %14, ptr noundef %15) #10
  %.not32 = icmp eq i32 %16, 0
  br i1 %.not32, label %17, label %34

17:                                               ; preds = %13, %10
  %18 = getelementptr inbounds nuw i8, ptr %1, i64 8
  %19 = load ptr, ptr %18, align 8, !tbaa !89
  %.not33 = icmp eq ptr %19, null
  br i1 %.not33, label %34, label %.preheader

.preheader:                                       ; preds = %17
  %20 = tail call i64 @sk_num(ptr noundef nonnull %19) #10
  %.not42 = icmp eq i64 %20, 0
  br i1 %.not42, label %.thread38, label %.lr.ph

21:                                               ; preds = %.lr.ph
  %22 = add nuw i64 %.02141, 1
  %23 = tail call i64 @sk_num(ptr noundef nonnull %19) #10
  %24 = icmp ult i64 %22, %23
  br i1 %24, label %.lr.ph, label %.thread38, !llvm.loop !90

.lr.ph:                                           ; preds = %.preheader, %21
  %.02141 = phi i64 [ %22, %21 ], [ 0, %.preheader ]
  %25 = tail call ptr @sk_value(ptr noundef nonnull %19, i64 noundef %.02141) #10
  %26 = load i32, ptr %25, align 8, !tbaa !71
  %27 = icmp eq i32 %26, 4
  br i1 %27, label %28, label %21

28:                                               ; preds = %.lr.ph
  %29 = getelementptr inbounds nuw i8, ptr %25, i64 8
  %30 = load ptr, ptr %29, align 8, !tbaa !51
  %.not34 = icmp eq ptr %30, null
  br i1 %.not34, label %.thread38, label %31

31:                                               ; preds = %28
  %32 = tail call ptr @X509_get_issuer_name(ptr noundef %0) #10
  %33 = tail call i32 @X509_NAME_cmp(ptr noundef nonnull %30, ptr noundef %32) #10
  %.not35 = icmp eq i32 %33, 0
  br i1 %.not35, label %.thread38, label %34

.thread38:                                        ; preds = %21, %.preheader, %28, %31
  br label %34

34:                                               ; preds = %17, %.thread38, %31, %13, %8, %2
  %.023 = phi i32 [ 0, %2 ], [ 30, %8 ], [ 31, %13 ], [ 31, %31 ], [ 0, %.thread38 ], [ 0, %17 ]
  ret i32 %.023
}